target datalayout = "e-m:e-p270:32:32-p271:32:32-p272:64:64-i64:64-i128:128-f80:128-n8:16:32:64-S128"
target triple = "x86_64-unknown-linux-gnu"

%struct.AddressSpace = type { %struct.rcu_head, ptr, ptr, ptr, i32, i32, ptr, %union.anon.0, %union.anon.1 }
%struct.rcu_head = type { ptr, ptr }
%union.anon.0 = type { %struct.QTailQLink }
%struct.QTailQLink = type { ptr, ptr }
%union.anon.1 = type { %struct.QTailQLink }
%struct.SDHCIState = type { %union.anon, %struct.SDBus, %struct.MemoryRegion, %struct.AddressSpace, ptr, ptr, ptr, ptr, ptr, ptr, i32, i16, i16, i32, i16, i16, [4 x i32], i32, i8, i8, i8, i8, i16, i8, i8, i16, i16, i16, i16, i16, i16, i16, i16, i64, i16, i64, i64, i16, ptr, i32, i16, i8, i8, i8, i32, i8, i8, i8, i8 }
%union.anon = type { %struct.PCIDevice }
%struct.PCIDevice = type { %struct.DeviceState, i8, i8, ptr, ptr, ptr, ptr, ptr, i32, %struct.PCIReqIDCache, [64 x i8], [7 x %struct.PCIIORegion], %struct.AddressSpace, %struct.MemoryRegion, %struct.MemoryRegion, ptr, ptr, [3 x ptr], i8, i8, i32, i8, i32, ptr, ptr, ptr, ptr, ptr, ptr, %struct.MemoryRegion, %struct.MemoryRegion, %struct.MemoryRegion, ptr, i8, i32, i8, %struct.PCIExpressDevice, ptr, ptr, i32, i8, %struct.MemoryRegion, i32, ptr, ptr, ptr, ptr, ptr, i32 }
%struct.DeviceState = type { %struct.Object, ptr, ptr, i8, i8, i64, ptr, i32, i8, ptr, %struct.NamedGPIOListHead, %struct.NamedClockListHead, %struct.BusStateHead, i32, i32, i32, %struct.ResettableState, ptr, %struct.MemReentrancyGuard }
%struct.Object = type { ptr, ptr, ptr, i32, ptr }
%struct.NamedGPIOListHead = type { ptr }
%struct.NamedClockListHead = type { ptr }
%struct.BusStateHead = type { ptr }
%struct.ResettableState = type { i32, i8, i8 }
%struct.MemReentrancyGuard = type { i8 }
%struct.PCIReqIDCache = type { ptr, i32 }
%struct.PCIIORegion = type { i64, i64, i8, ptr, ptr }
%struct.PCIExpressDevice = type { i8, i8, i8, i16, %struct.PCIEAERLog, i16, i16, i16, %struct.PCIESriovPF, %struct.PCIESriovVF }
%struct.PCIEAERLog = type { i16, i16, ptr }
%struct.PCIESriovPF = type { i16, [7 x i8], ptr, ptr }
%struct.PCIESriovVF = type { ptr, i16 }
%struct.SDBus = type { %struct.BusState }
%struct.BusState = type { %struct.Object, ptr, ptr, ptr, i32, i8, i8, i32, %union.BusChildHead, %struct.BusStateEntry, %struct.ResettableState }
%union.BusChildHead = type { %struct.QTailQLink }
%struct.BusStateEntry = type { ptr, ptr }
%struct.MemoryRegion = type { %struct.Object, i8, i8, i8, i8, i8, i8, i8, i8, i8, i8, ptr, ptr, ptr, ptr, ptr, ptr, i32, i128, i64, ptr, i64, i8, i8, i8, i8, i8, ptr, i64, i32, %union.anon.2, %union.anon.3, %union.anon.4, ptr, i32, ptr, ptr, i8 }
%union.anon.2 = type { %struct.QTailQLink }
%union.anon.3 = type { %struct.QTailQLink }
%union.anon.4 = type { %struct.QTailQLink }

@.str.151 = private unnamed_addr constant [14 x i8] c"generic-sdhci\00", align 1
@.str.153 = private unnamed_addr constant [100 x i8] c"/home/dtcxzyw/WorkSpace/Projects/compilers/llvm-opt-benchmark/bench/qemu/qemu/include/hw/sd/sdhci.h\00", align 1
@__func__.SYSBUS_SDHCI = private unnamed_addr constant [13 x i8] c"SYSBUS_SDHCI\00", align 1

; Function Attrs: nounwind sspstrong uwtable
define internal ptr @SYSBUS_SDHCI(ptr noundef %obj) #0 {
entry:
  %obj.addr = alloca ptr, align 8
  store ptr %obj, ptr %obj.addr, align 8
  %0 = load ptr, ptr %obj.addr, align 8
  %call = call ptr @object_dynamic_cast_assert(ptr noundef %0, ptr noundef @.str.151, ptr noundef @.str.153, i32 noundef 124, ptr noundef @__func__.SYSBUS_SDHCI)
  ret ptr %call
}

; Function Attrs: nounwind sspstrong uwtable
define internal void @usdhc_write(ptr noundef %opaque, i64 noundef %offset, i64 noundef %val, i32 noundef %size) #0 {
entry:
  %opaque.addr = alloca ptr, align 8
  %offset.addr = alloca i64, align 8
  %val.addr = alloca i64, align 8
  %size.addr = alloca i32, align 4
  %s = alloca ptr, align 8
  %hostctl1 = alloca i8, align 1
  %value = alloca i32, align 4
  store ptr %opaque, ptr %opaque.addr, align 8
  store i64 %offset, ptr %offset.addr, align 8
  store i64 %val, ptr %val.addr, align 8
  store i32 %size, ptr %size.addr, align 4
  %0 = load ptr, ptr %opaque.addr, align 8
  %call = call ptr @SYSBUS_SDHCI(ptr noundef %0)
  store ptr %call, ptr %s, align 8
  %1 = load i64, ptr %val.addr, align 8
  %conv = trunc i64 %1 to i32
  store i32 %conv, ptr %value, align 4
  %2 = load i64, ptr %offset.addr, align 8
  switch i64 %2, label %sw.default44 [
    i64 96, label %sw.bb
    i64 104, label %sw.bb
    i64 108, label %sw.bb
    i64 204, label %sw.bb
    i64 68, label %sw.bb
    i64 192, label %sw.bb1
    i64 40, label %sw.bb7
    i64 72, label %sw.bb35
    i64 12, label %sw.bb38
    i64 4, label %sw.bb42
  ]

sw.bb:                                            ; preds = %entry, %entry, %entry, %entry, %entry
  br label %sw.epilog45

sw.bb1:                                           ; preds = %entry
  %3 = load i32, ptr %value, align 4
  %conv2 = trunc i32 %3 to i16
  %4 = load ptr, ptr %s, align 8
  %vendor_spec = getelementptr inbounds %struct.SDHCIState, ptr %4, i32 0, i32 34
  store i16 %conv2, ptr %vendor_spec, align 16
  %5 = load ptr, ptr %s, align 8
  %vendor = getelementptr inbounds %struct.SDHCIState, ptr %5, i32 0, i32 48
  %6 = load i8, ptr %vendor, align 1
  %conv3 = zext i8 %6 to i32
  switch i32 %conv3, label %sw.default [
    i32 1, label %sw.bb4
  ]

sw.bb4:                                           ; preds = %sw.bb1
  %7 = load i32, ptr %value, align 4
  %and = and i32 %7, 256
  %tobool = icmp ne i32 %and, 0
  br i1 %tobool, label %if.then, label %if.else

if.then:                                          ; preds = %sw.bb4
  %8 = load ptr, ptr %s, align 8
  %prnsts = getelementptr inbounds %struct.SDHCIState, ptr %8, i32 0, i32 17
  %9 = load i32, ptr %prnsts, align 8
  %and5 = and i32 %9, -129
  store i32 %and5, ptr %prnsts, align 8
  br label %if.end

if.else:                                          ; preds = %sw.bb4
  %10 = load ptr, ptr %s, align 8
  %prnsts6 = getelementptr inbounds %struct.SDHCIState, ptr %10, i32 0, i32 17
  %11 = load i32, ptr %prnsts6, align 8
  %or = or i32 %11, 128
  store i32 %or, ptr %prnsts6, align 8
  br label %if.end

if.end:                                           ; preds = %if.else, %if.then
  br label %sw.epilog

sw.default:                                       ; preds = %sw.bb1
  br label %sw.epilog

sw.epilog:                                        ; preds = %sw.default, %if.end
  br label %sw.epilog45

sw.bb7:                                           ; preds = %entry
  %12 = load i32, ptr %value, align 4
  %and8 = and i32 %12, 193
  %conv9 = trunc i32 %and8 to i8
  store i8 %conv9, ptr %hostctl1, align 1
  %13 = load i32, ptr %value, align 4
  %and10 = and i32 %13, 4
  %tobool11 = icmp ne i32 %and10, 0
  br i1 %tobool11, label %if.then12, label %if.end16

if.then12:                                        ; preds = %sw.bb7
  %14 = load i8, ptr %hostctl1, align 1
  %conv13 = zext i8 %14 to i32
  %or14 = or i32 %conv13, 32
  %conv15 = trunc i32 %or14 to i8
  store i8 %conv15, ptr %hostctl1, align 1
  br label %if.end16

if.end16:                                         ; preds = %if.then12, %sw.bb7
  %15 = load i32, ptr %value, align 4
  %and17 = and i32 %15, 2
  %tobool18 = icmp ne i32 %and17, 0
  br i1 %tobool18, label %if.then19, label %if.end23

if.then19:                                        ; preds = %if.end16
  %16 = load i8, ptr %hostctl1, align 1
  %conv20 = zext i8 %16 to i32
  %or21 = or i32 %conv20, 2
  %conv22 = trunc i32 %or21 to i8
  store i8 %conv22, ptr %hostctl1, align 1
  br label %if.end23

if.end23:                                         ; preds = %if.then19, %if.end16
  %17 = load i32, ptr %value, align 4
  %shr = lshr i32 %17, 5
  %and24 = and i32 %shr, 24
  %18 = load i8, ptr %hostctl1, align 1
  %conv25 = zext i8 %18 to i32
  %or26 = or i32 %conv25, %and24
  %conv27 = trunc i32 %or26 to i8
  store i8 %conv27, ptr %hostctl1, align 1
  %19 = load i32, ptr %value, align 4
  %and28 = and i32 %19, -65536
  store i32 %and28, ptr %value, align 4
  %20 = load i8, ptr %hostctl1, align 1
  %conv29 = zext i8 %20 to i32
  %21 = load i32, ptr %value, align 4
  %or30 = or i32 %21, %conv29
  store i32 %or30, ptr %value, align 4
  %22 = load ptr, ptr %s, align 8
  %pwrcon = getelementptr inbounds %struct.SDHCIState, ptr %22, i32 0, i32 19
  %23 = load i8, ptr %pwrcon, align 1
  %conv31 = zext i8 %23 to i16
  %conv32 = zext i16 %conv31 to i32
  %shl = shl i32 %conv32, 8
  %24 = load i32, ptr %value, align 4
  %or33 = or i32 %24, %shl
  store i32 %or33, ptr %value, align 4
  %25 = load ptr, ptr %opaque.addr, align 8
  %26 = load i64, ptr %offset.addr, align 8
  %27 = load i32, ptr %value, align 4
  %conv34 = zext i32 %27 to i64
  %28 = load i32, ptr %size.addr, align 4
  call void @sdhci_write(ptr noundef %25, i64 noundef %26, i64 noundef %conv34, i32 noundef %28)
  br label %sw.epilog45

sw.bb35:                                          ; preds = %entry
  %29 = load i32, ptr %value, align 4
  %and36 = and i32 %29, 65535
  %conv37 = trunc i32 %and36 to i16
  %30 = load ptr, ptr %s, align 8
  %trnmod = getelementptr inbounds %struct.SDHCIState, ptr %30, i32 0, i32 14
  store i16 %conv37, ptr %trnmod, align 4
  br label %sw.epilog45

sw.bb38:                                          ; preds = %entry
  %31 = load ptr, ptr %opaque.addr, align 8
  %32 = load i64, ptr %offset.addr, align 8
  %33 = load i64, ptr %val.addr, align 8
  %34 = load ptr, ptr %s, align 8
  %trnmod39 = getelementptr inbounds %struct.SDHCIState, ptr %34, i32 0, i32 14
  %35 = load i16, ptr %trnmod39, align 4
  %conv40 = zext i16 %35 to i64
  %or41 = or i64 %33, %conv40
  %36 = load i32, ptr %size.addr, align 4
  call void @sdhci_write(ptr noundef %31, i64 noundef %32, i64 noundef %or41, i32 noundef %36)
  br label %sw.epilog45

sw.bb42:                                          ; preds = %entry
  %37 = load i64, ptr %val.addr, align 8
  %or43 = or i64 %37, 28672
  store i64 %or43, ptr %val.addr, align 8
  br label %sw.default44

sw.default44:                                     ; preds = %sw.bb42, %entry
  %38 = load ptr, ptr %opaque.addr, align 8
  %39 = load i64, ptr %offset.addr, align 8
  %40 = load i64, ptr %val.addr, align 8
  %41 = load i32, ptr %size.addr, align 4
  call void @sdhci_write(ptr noundef %38, i64 noundef %39, i64 noundef %40, i32 noundef %41)
  br label %sw.epilog45

sw.epilog45:                                      ; preds = %sw.default44, %sw.bb38, %sw.bb35, %if.end23, %sw.epilog, %sw.bb
  ret void
}