; Function Attrs: nounwind sspstrong uwtable
define internal void @usdhc_write(ptr noundef %opaque, i64 noundef %offset, i64 noundef %val, i32 noundef %size) #0 {
entry:
  %call.i = tail call ptr @object_dynamic_cast_assert(ptr noundef %opaque, ptr noundef nonnull @.str.151, ptr noundef nonnull @.str.153, i32 noundef 124, ptr noundef nonnull @__func__.SYSBUS_SDHCI) #12
  switch i64 %offset, label %sw.default44 [
    i64 96, label %sw.epilog45
    i64 104, label %sw.epilog45
    i64 108, label %sw.epilog45
    i64 204, label %sw.epilog45
    i64 68, label %sw.epilog45
    i64 192, label %sw.bb1
    i64 40, label %sw.bb7
    i64 72, label %sw.bb35
    i64 12, label %sw.bb38
    i64 4, label %sw.bb42
  ]

sw.bb1:                                           ; preds = %entry
  %conv2 = trunc i64 %val to i16
  %vendor_spec = getelementptr inbounds nuw i8, ptr %call.i, i64 3216
  store i16 %conv2, ptr %vendor_spec, align 16
  %vendor = getelementptr inbounds nuw i8, ptr %call.i, i64 3275
  %0 = load i8, ptr %vendor, align 1
  %cond = icmp eq i8 %0, 1
  br i1 %cond, label %sw.bb4, label %sw.epilog45

sw.bb4:                                           ; preds = %sw.bb1
  %and32 = and i64 %val, 256
  %tobool.not = icmp eq i64 %and32, 0
  %prnsts6 = getelementptr inbounds nuw i8, ptr %call.i, i64 3176
  %1 = load i32, ptr %prnsts6, align 8
  br i1 %tobool.not, label %if.else, label %if.then

if.then:                                          ; preds = %sw.bb4
  %and5 = and i32 %1, -129
  store i32 %and5, ptr %prnsts6, align 8
  br label %sw.epilog45

if.else:                                          ; preds = %sw.bb4
  %or = or i32 %1, 128
  store i32 %or, ptr %prnsts6, align 8
  br label %sw.epilog45

sw.bb7:                                           ; preds = %entry
  %2 = shl i64 %val, 3
  %3 = and i64 %2, 32
  %shr31 = lshr i64 %val, 5
  %4 = and i64 %shr31, 24
  %pwrcon = getelementptr inbounds nuw i8, ptr %call.i, i64 3181
  %5 = load i8, ptr %pwrcon, align 1
  %conv32 = zext i8 %5 to i64
  %shl = shl nuw nsw i64 %conv32, 8
  %hostctl1.1 = and i64 %val, 4294901955
  %conv27 = or disjoint i64 %hostctl1.1, %3
  %or30 = or disjoint i64 %conv27, %4
  %or33 = or disjoint i64 %or30, %shl
  tail call void @sdhci_write(ptr noundef %opaque, i64 noundef 40, i64 noundef %or33, i32 noundef %size)
  br label %sw.epilog45

sw.bb35:                                          ; preds = %entry
  %conv37 = trunc i64 %val to i16
  %trnmod = getelementptr inbounds nuw i8, ptr %call.i, i64 3156
  store i16 %conv37, ptr %trnmod, align 4
  br label %sw.epilog45

sw.bb38:                                          ; preds = %entry
  %trnmod39 = getelementptr inbounds nuw i8, ptr %call.i, i64 3156
  %6 = load i16, ptr %trnmod39, align 4
  %conv40 = zext i16 %6 to i64
  %or41 = or i64 %val, %conv40
  tail call void @sdhci_write(ptr noundef %opaque, i64 noundef 12, i64 noundef %or41, i32 noundef %size)
  br label %sw.epilog45

sw.bb42:                                          ; preds = %entry
  %or43 = or i64 %val, 28672
  br label %sw.default44

sw.default44:                                     ; preds = %sw.bb42, %entry
  %val.addr.0 = phi i64 [ %val, %entry ], [ %or43, %sw.bb42 ]
  tail call void @sdhci_write(ptr noundef %opaque, i64 noundef %offset, i64 noundef %val.addr.0, i32 noundef %size)
  br label %sw.epilog45

sw.epilog45:                                      ; preds = %if.else, %if.then, %sw.bb1, %entry, %entry, %entry, %entry, %entry, %sw.default44, %sw.bb38, %sw.bb35, %sw.bb7
  ret void
}